target datalayout = "e-m:e-p270:32:32-p271:32:32-p272:64:64-i64:64-i128:128-f80:128-n8:16:32:64-S128"
target triple = "x86_64-pc-linux-gnu"

%struct.AlterDatabaseSetStmt = type { i32, ptr, ptr }

; Function Attrs: nounwind uwtable
define dso_local i32 @AlterDatabaseSet(ptr noundef %0) #0 {
  %2 = alloca ptr, align 8
  %3 = alloca i32, align 4
  store ptr %0, ptr %2, align 8
  call void @llvm.lifetime.start.p0(i64 4, ptr %3) #14
  %4 = load ptr, ptr %2, align 8
  %5 = getelementptr inbounds nuw %struct.AlterDatabaseSetStmt, ptr %4, i32 0, i32 1
  %6 = load ptr, ptr %5, align 8
  %7 = call i32 @get_database_oid(ptr noundef %6, i1 noundef zeroext false)
  store i32 %7, ptr %3, align 4
  %8 = load i32, ptr %3, align 4
  call void @shdepLockAndCheckObject(i32 noundef 1262, i32 noundef %8)
  %9 = load i32, ptr %3, align 4
  %10 = call i32 @GetUserId()
  %11 = call zeroext i1 @object_ownercheck(i32 noundef 1262, i32 noundef %9, i32 noundef %10)
  br i1 %11, label %16, label %12

12:                                               ; preds = %1
  %13 = load ptr, ptr %2, align 8
  %14 = getelementptr inbounds nuw %struct.AlterDatabaseSetStmt, ptr %13, i32 0, i32 1
  %15 = load ptr, ptr %14, align 8
  call void @aclcheck_error(i32 noundef 2, i32 noundef 9, ptr noundef %15)
  br label %16

16:                                               ; preds = %12, %1
  %17 = load i32, ptr %3, align 4
  %18 = load ptr, ptr %2, align 8
  %19 = getelementptr inbounds nuw %struct.AlterDatabaseSetStmt, ptr %18, i32 0, i32 2
  %20 = load ptr, ptr %19, align 8
  call void @AlterSetting(i32 noundef %17, i32 noundef 0, ptr noundef %20)
  %21 = load i32, ptr %3, align 4
  call void @UnlockSharedObject(i32 noundef 1262, i32 noundef %21, i16 noundef zeroext 0, i32 noundef 1)
  %22 = load i32, ptr %3, align 4
  call void @llvm.lifetime.end.p0(i64 4, ptr %3) #14
  ret i32 %22
}