; Function Attrs: nounwind uwtable
define dso_local noundef i32 @AlterDatabaseSet(ptr noundef readonly captures(none) %0) local_unnamed_addr #0 {
  %2 = getelementptr inbounds nuw i8, ptr %0, i64 8
  %3 = load ptr, ptr %2, align 8
  %4 = tail call i32 @get_database_oid(ptr noundef %3, i1 noundef zeroext false)
  tail call void @shdepLockAndCheckObject(i32 noundef 1262, i32 noundef %4) #16
  %5 = tail call i32 @GetUserId() #16
  %6 = tail call zeroext i1 @object_ownercheck(i32 noundef 1262, i32 noundef %4, i32 noundef %5) #16
  br i1 %6, label %9, label %7

7:                                                ; preds = %1
  %8 = load ptr, ptr %2, align 8
  tail call void @aclcheck_error(i32 noundef 2, i32 noundef 9, ptr noundef %8) #16
  br label %9

9:                                                ; preds = %7, %1
  %10 = getelementptr inbounds nuw i8, ptr %0, i64 16
  %11 = load ptr, ptr %10, align 8
  tail call void @AlterSetting(i32 noundef %4, i32 noundef 0, ptr noundef %11) #16
  tail call void @UnlockSharedObject(i32 noundef 1262, i32 noundef %4, i16 noundef zeroext 0, i32 noundef 1) #16
  ret i32 %4
}